; Function Attrs: mustprogress uwtable
define void @_ZN5ZXing8FromUtf8B5cxx11ESt17basic_string_viewIcSt11char_traitsIcEE(ptr dead_on_unwind noalias nonnull writable sret(%"class.std::__cxx11::basic_string") align 8 %0, i64 %1, ptr captures(address) %2) local_unnamed_addr #0 personality ptr @__gxx_personality_v0 {
  %4 = getelementptr inbounds nuw i8, ptr %0, i64 16
  store ptr %4, ptr %0, align 8, !tbaa !3
  %5 = getelementptr inbounds nuw i8, ptr %0, i64 8
  store i64 0, ptr %5, align 8, !tbaa !9
  store i32 0, ptr %4, align 8, !tbaa !12
  invoke fastcc void @_ZN5ZXingL14AppendFromUtf8ESt17basic_string_viewIDuSt11char_traitsIDuEERNSt7__cxx1112basic_stringIwS1_IwESaIwEEE(i64 %1, ptr %2, ptr noundef nonnull align 8 dereferenceable(32) %0)
          to label %15 unwind label %6

6:                                                ; preds = %3
  %7 = landingpad { ptr, i32 }
          cleanup
  %8 = load ptr, ptr %0, align 8, !tbaa !14
  %9 = icmp eq ptr %8, %4
  br i1 %9, label %_ZNKSt7__cxx1112basic_stringIwSt11char_traitsIwESaIwEE11_M_is_localEv.exit.thread.i.i, label %_ZNKSt7__cxx1112basic_stringIwSt11char_traitsIwESaIwEE11_M_is_localEv.exit.i.i

_ZNKSt7__cxx1112basic_stringIwSt11char_traitsIwESaIwEE11_M_is_localEv.exit.thread.i.i: ; preds = %6
  %10 = load i64, ptr %5, align 8, !tbaa !9
  %11 = icmp ult i64 %10, 4
  tail call void @llvm.assume(i1 %11)
  br label %_ZNSt7__cxx1112basic_stringIwSt11char_traitsIwESaIwEED2Ev.exit

_ZNKSt7__cxx1112basic_stringIwSt11char_traitsIwESaIwEE11_M_is_localEv.exit.i.i: ; preds = %6
  %12 = load i64, ptr %4, align 8, !tbaa !15
  %13 = shl i64 %12, 2
  %14 = add i64 %13, 4
  tail call void @_ZdlPvm(ptr noundef %8, i64 noundef %14) #12
  br label %_ZNSt7__cxx1112basic_stringIwSt11char_traitsIwESaIwEED2Ev.exit

_ZNSt7__cxx1112basic_stringIwSt11char_traitsIwESaIwEED2Ev.exit: ; preds = %_ZNKSt7__cxx1112basic_stringIwSt11char_traitsIwESaIwEE11_M_is_localEv.exit.thread.i.i, %_ZNKSt7__cxx1112basic_stringIwSt11char_traitsIwESaIwEE11_M_is_localEv.exit.i.i
  resume { ptr, i32 } %7

15:                                               ; preds = %3
  ret void
}